; Function Attrs: mustprogress uwtable
define noundef i32 @_ZN3zmq20stream_engine_base_t25process_handshake_commandEPNS_5msg_tE(ptr noundef nonnull align 8 dereferenceable(1689) %this, ptr noundef %msg_) local_unnamed_addr #0 align 2 {
entry:
  %_mechanism = getelementptr inbounds i8, ptr %this, i64 1408
  %0 = load ptr, ptr %_mechanism, align 8
  %cmp.not = icmp eq ptr %0, null
  br i1 %cmp.not, label %if.then, label %do.end

if.then:                                          ; preds = %entry
  %1 = load ptr, ptr @stderr, align 8
  %call = tail call i32 (ptr, ptr, ...) @fprintf(ptr noundef %1, ptr noundef nonnull @.str.2, ptr noundef nonnull @.str.15, ptr noundef nonnull @.str.1, i32 noundef 475) #21
  %2 = load ptr, ptr @stderr, align 8
  %call2 = tail call i32 @fflush(ptr noundef %2)
  tail call void @_ZN3zmq9zmq_abortEPKc(ptr noundef nonnull @.str.15)
  %.pre = load ptr, ptr %_mechanism, align 8
  br label %do.end

do.end:                                           ; preds = %entry, %if.then
  %3 = phi ptr [ %0, %entry ], [ %.pre, %if.then ]
  %vtable = load ptr, ptr %3, align 8
  %vfn = getelementptr inbounds i8, ptr %vtable, i64 24
  %4 = load ptr, ptr %vfn, align 8
  %call4 = tail call noundef i32 %4(ptr noundef nonnull align 8 dereferenceable(1488) %3, ptr noundef %msg_)
  %cmp5 = icmp eq i32 %call4, 0
  br i1 %cmp5, label %if.then6, label %return

if.then6:                                         ; preds = %do.end
  %5 = load ptr, ptr %_mechanism, align 8
  %vtable8 = load ptr, ptr %5, align 8
  %vfn9 = getelementptr inbounds i8, ptr %vtable8, i64 56
  %6 = load ptr, ptr %vfn9, align 8
  %call10 = tail call noundef i32 %6(ptr noundef nonnull align 8 dereferenceable(1488) %5)
  %cmp11 = icmp eq i32 %call10, 1
  br i1 %cmp11, label %if.then12, label %if.else

if.then12:                                        ; preds = %if.then6
  tail call void @_ZN3zmq20stream_engine_base_t15mechanism_readyEv(ptr noundef nonnull align 8 dereferenceable(1689) %this)
  br label %if.end21

if.else:                                          ; preds = %if.then6
  %7 = load ptr, ptr %_mechanism, align 8
  %vtable14 = load ptr, ptr %7, align 8
  %vfn15 = getelementptr inbounds i8, ptr %vtable14, i64 56
  %8 = load ptr, ptr %vfn15, align 8
  %call16 = tail call noundef i32 %8(ptr noundef nonnull align 8 dereferenceable(1488) %7)
  %cmp17 = icmp eq i32 %call16, 2
  br i1 %cmp17, label %if.then18, label %if.end21

if.then18:                                        ; preds = %if.else
  %call19 = tail call ptr @__errno_location() #20
  store i32 71, ptr %call19, align 4
  br label %return

if.end21:                                         ; preds = %if.else, %if.then12
  %_output_stopped = getelementptr inbounds i8, ptr %this, i64 1457
  %9 = load i8, ptr %_output_stopped, align 1
  %10 = and i8 %9, 1
  %tobool.not = icmp eq i8 %10, 0
  br i1 %tobool.not, label %return, label %if.then22

if.then22:                                        ; preds = %if.end21
  %_io_error.i = getelementptr inbounds i8, ptr %this, i64 1664
  %11 = load i8, ptr %_io_error.i, align 8
  %12 = and i8 %11, 1
  %tobool.not.i = icmp eq i8 %12, 0
  br i1 %tobool.not.i, label %if.end5.i, label %return

if.end5.i:                                        ; preds = %if.then22
  %_handle.i.i = getelementptr inbounds i8, ptr %this, i64 1584
  %13 = load ptr, ptr %_handle.i.i, align 8
  tail call void @_ZN3zmq11io_object_t11set_polloutEPv(ptr noundef nonnull align 8 dereferenceable(16) %this, ptr noundef %13)
  store i8 0, ptr %_output_stopped, align 1
  %vtable.i = load ptr, ptr %this, align 8
  %vfn.i = getelementptr inbounds i8, ptr %vtable.i, i64 24
  %14 = load ptr, ptr %vfn.i, align 8
  tail call void %14(ptr noundef nonnull align 8 dereferenceable(1689) %this)
  br label %return

return:                                           ; preds = %if.end5.i, %if.then22, %do.end, %if.end21, %if.then18
  %retval.0 = phi i32 [ -1, %if.then18 ], [ 0, %if.end21 ], [ %call4, %do.end ], [ 0, %if.then22 ], [ 0, %if.end5.i ]
  ret i32 %retval.0
}